; Function Attrs: mustprogress nounwind uwtable
define dso_local noundef zeroext i1 @_ZN4node8v8_utils11BindingData23PrepareForSerializationEN2v85LocalINS2_7ContextEEEPNS2_15SnapshotCreatorE(ptr nocapture noundef nonnull align 8 dereferenceable(216) %this, ptr %context.coerce, ptr noundef %creator) unnamed_addr #3 align 2 {
entry:
  %type_.i = getelementptr inbounds i8, ptr %this, i64 32
  %0 = load i8, ptr %type_.i, align 8
  %call.i = tail call noalias noundef nonnull dereferenceable(40) ptr @_Znam(i64 noundef 40) #22
  store i8 %0, ptr %call.i, align 8
  %length.i = getelementptr inbounds i8, ptr %call.i, i64 8
  store i64 40, ptr %length.i, align 8
  %internal_field_info_ = getelementptr inbounds i8, ptr %this, i64 208
  store ptr %call.i, ptr %internal_field_info_, align 8
  %js_array_.i.i = getelementptr inbounds i8, ptr %this, i64 80
  %1 = load ptr, ptr %js_array_.i.i, align 8, !nonnull !5, !noundef !5
  %isolate_.i.i = getelementptr inbounds i8, ptr %this, i64 48
  %2 = load ptr, ptr %isolate_.i.i, align 8
  %3 = load i64, ptr %1, align 8
  %call.i.i.i = tail call noundef ptr @_ZN2v811HandleScope12CreateHandleEPNS_8internal7IsolateEm(ptr noundef %2, i64 noundef %3) #20
  %4 = load i64, ptr %call.i.i.i, align 8
  %call11.i.i = tail call noundef i64 @_ZN2v815SnapshotCreator7AddDataENS_5LocalINS_7ContextEEEm(ptr noundef nonnull align 8 dereferenceable(8) %creator, ptr %context.coerce, i64 noundef %4) #20
  %5 = load ptr, ptr %internal_field_info_, align 8
  %heap_statistics_buffer10 = getelementptr inbounds i8, ptr %5, i64 16
  store i64 %call11.i.i, ptr %heap_statistics_buffer10, align 8
  %js_array_.i.i3 = getelementptr inbounds i8, ptr %this, i64 136
  %6 = load ptr, ptr %js_array_.i.i3, align 8, !nonnull !5, !noundef !5
  %isolate_.i.i4 = getelementptr inbounds i8, ptr %this, i64 104
  %7 = load ptr, ptr %isolate_.i.i4, align 8
  %8 = load i64, ptr %6, align 8
  %call.i.i.i5 = tail call noundef ptr @_ZN2v811HandleScope12CreateHandleEPNS_8internal7IsolateEm(ptr noundef %7, i64 noundef %8) #20
  %9 = load i64, ptr %call.i.i.i5, align 8
  %call11.i.i6 = tail call noundef i64 @_ZN2v815SnapshotCreator7AddDataENS_5LocalINS_7ContextEEEm(ptr noundef nonnull align 8 dereferenceable(8) %creator, ptr %context.coerce, i64 noundef %9) #20
  %10 = load ptr, ptr %internal_field_info_, align 8
  %heap_space_statistics_buffer17 = getelementptr inbounds i8, ptr %10, i64 24
  store i64 %call11.i.i6, ptr %heap_space_statistics_buffer17, align 8
  %js_array_.i.i7 = getelementptr inbounds i8, ptr %this, i64 192
  %11 = load ptr, ptr %js_array_.i.i7, align 8, !nonnull !5, !noundef !5
  %isolate_.i.i8 = getelementptr inbounds i8, ptr %this, i64 160
  %12 = load ptr, ptr %isolate_.i.i8, align 8
  %13 = load i64, ptr %11, align 8
  %call.i.i.i9 = tail call noundef ptr @_ZN2v811HandleScope12CreateHandleEPNS_8internal7IsolateEm(ptr noundef %12, i64 noundef %13) #20
  %14 = load i64, ptr %call.i.i.i9, align 8
  %call11.i.i10 = tail call noundef i64 @_ZN2v815SnapshotCreator7AddDataENS_5LocalINS_7ContextEEEm(ptr noundef nonnull align 8 dereferenceable(8) %creator, ptr %context.coerce, i64 noundef %14) #20
  %15 = load ptr, ptr %internal_field_info_, align 8
  %heap_code_statistics_buffer24 = getelementptr inbounds i8, ptr %15, i64 32
  store i64 %call11.i.i10, ptr %heap_code_statistics_buffer24, align 8
  ret i1 true
}